; Function Attrs: mustprogress uwtable
define noundef range(i32 -1, 6) i32 @_ZNK10open_spiel13markov_soccer17MarkovSoccerState17observation_planeEii(ptr nocapture noundef nonnull readonly align 8 dereferenceable(144) %0, i32 noundef %1, i32 noundef %2) local_unnamed_addr #3 align 2 {
  %4 = getelementptr inbounds nuw i8, ptr %0, i64 120
  %5 = getelementptr inbounds nuw i8, ptr %0, i64 64
  %6 = load ptr, ptr %5, align 8
  %7 = getelementptr inbounds nuw i8, ptr %6, i64 4
  %8 = load i32, ptr %7, align 4
  %9 = mul nsw i32 %8, %1
  %10 = add nsw i32 %9, %2
  %11 = sext i32 %10 to i64
  %12 = load ptr, ptr %4, align 8
  %13 = getelementptr inbounds i8, ptr %12, i64 %11
  %14 = load i8, ptr %13, align 1
  switch i8 %14, label %20 [
    i8 97, label %33
    i8 65, label %15
    i8 98, label %16
    i8 66, label %17
    i8 79, label %18
    i8 46, label %19
  ]

15:                                               ; preds = %3
  br label %33

16:                                               ; preds = %3
  br label %33

17:                                               ; preds = %3
  br label %33

18:                                               ; preds = %3
  br label %33

19:                                               ; preds = %3
  br label %33

20:                                               ; preds = %3
  %21 = tail call noundef nonnull align 8 dereferenceable(8) ptr @_ZStlsISt11char_traitsIcEERSt13basic_ostreamIcT_ES5_PKc(ptr noundef nonnull align 8 dereferenceable(8) @_ZSt4cerr, ptr noundef nonnull @.str.39)
  %22 = load ptr, ptr %5, align 8
  %23 = getelementptr inbounds nuw i8, ptr %22, i64 4
  %24 = load i32, ptr %23, align 4
  %25 = mul nsw i32 %24, %1
  %26 = add nsw i32 %25, %2
  %27 = sext i32 %26 to i64
  %28 = load ptr, ptr %4, align 8
  %29 = getelementptr inbounds i8, ptr %28, i64 %27
  %30 = load i8, ptr %29, align 1
  %31 = tail call noundef nonnull align 8 dereferenceable(8) ptr @_ZStlsISt11char_traitsIcEERSt13basic_ostreamIcT_ES5_c(ptr noundef nonnull align 8 dereferenceable(8) %21, i8 noundef signext %30)
  %32 = tail call noundef nonnull align 8 dereferenceable(8) ptr @_ZNSolsEPFRSoS_E(ptr noundef nonnull align 8 dereferenceable(8) %31, ptr noundef nonnull @_ZSt4endlIcSt11char_traitsIcEERSt13basic_ostreamIT_T0_ES6_)
  br label %33

33:                                               ; preds = %3, %20, %19, %18, %17, %16, %15
  %.0 = phi i32 [ -1, %20 ], [ 5, %19 ], [ 4, %18 ], [ 3, %17 ], [ 2, %16 ], [ 1, %15 ], [ 0, %3 ]
  ret i32 %.0
}